target datalayout = "e-m:e-p270:32:32-p271:32:32-p272:64:64-i64:64-i128:128-f80:128-n8:16:32:64-S128"
target triple = "x86_64-unknown-linux-gnu"

%class.func_decls = type { ptr }
%"class.core_hashtable<obj_hash_entry<func_decl>, obj_ptr_hash<func_decl>, ptr_eq<func_decl>>::iterator" = type { ptr, ptr }
%class.core_hashtable.26 = type <{ ptr, i32, i32, i32, [4 x i8] }>
%class.obj_hash_entry = type { ptr }

; Function Attrs: mustprogress nounwind uwtable
define linkonce_odr hidden noundef zeroext i1 @_ZNK14obj_hash_entryI9func_declE7is_usedEv(ptr noundef nonnull align 8 dereferenceable(8) %this) #5 comdat align 2 {
entry:
  %this.addr = alloca ptr, align 8
  store ptr %this, ptr %this.addr, align 8
  %this1 = load ptr, ptr %this.addr, align 8
  %m_ptr = getelementptr inbounds %class.obj_hash_entry, ptr %this1, i32 0, i32 0
  %0 = load ptr, ptr %m_ptr, align 8
  %cmp = icmp ne ptr %0, null
  br i1 %cmp, label %land.rhs, label %land.end

land.rhs:                                         ; preds = %entry
  %m_ptr2 = getelementptr inbounds %class.obj_hash_entry, ptr %this1, i32 0, i32 0
  %1 = load ptr, ptr %m_ptr2, align 8
  %cmp3 = icmp ne ptr %1, inttoptr (i64 1 to ptr)
  br label %land.end

land.end:                                         ; preds = %land.rhs, %entry
  %2 = phi i1 [ false, %entry ], [ %cmp3, %land.rhs ]
  ret i1 %2
}

; Function Attrs: mustprogress uwtable
define linkonce_odr hidden void @_ZN14core_hashtableI14obj_hash_entryI9func_declE12obj_ptr_hashIS1_E6ptr_eqIS1_EE8iterator12move_to_usedEv(ptr noundef nonnull align 8 dereferenceable(16) %this) #4 comdat align 2 {
entry:
  %this.addr = alloca ptr, align 8
  store ptr %this, ptr %this.addr, align 8
  %this1 = load ptr, ptr %this.addr, align 8
  br label %while.cond

while.cond:                                       ; preds = %while.body, %entry
  %m_curr = getelementptr inbounds %"class.core_hashtable<obj_hash_entry<func_decl>, obj_ptr_hash<func_decl>, ptr_eq<func_decl>>::iterator", ptr %this1, i32 0, i32 0
  %0 = load ptr, ptr %m_curr, align 8
  %m_end = getelementptr inbounds %"class.core_hashtable<obj_hash_entry<func_decl>, obj_ptr_hash<func_decl>, ptr_eq<func_decl>>::iterator", ptr %this1, i32 0, i32 1
  %1 = load ptr, ptr %m_end, align 8
  %cmp = icmp ne ptr %0, %1
  br i1 %cmp, label %land.rhs, label %land.end

land.rhs:                                         ; preds = %while.cond
  %m_curr2 = getelementptr inbounds %"class.core_hashtable<obj_hash_entry<func_decl>, obj_ptr_hash<func_decl>, ptr_eq<func_decl>>::iterator", ptr %this1, i32 0, i32 0
  %2 = load ptr, ptr %m_curr2, align 8
  %call = call noundef zeroext i1 @_ZNK14obj_hash_entryI9func_declE7is_usedEv(ptr noundef nonnull align 8 dereferenceable(8) %2)
  %lnot = xor i1 %call, true
  br label %land.end

land.end:                                         ; preds = %land.rhs, %while.cond
  %3 = phi i1 [ false, %while.cond ], [ %lnot, %land.rhs ]
  br i1 %3, label %while.body, label %while.end

while.body:                                       ; preds = %land.end
  %m_curr3 = getelementptr inbounds %"class.core_hashtable<obj_hash_entry<func_decl>, obj_ptr_hash<func_decl>, ptr_eq<func_decl>>::iterator", ptr %this1, i32 0, i32 0
  %4 = load ptr, ptr %m_curr3, align 8
  %incdec.ptr = getelementptr inbounds %class.obj_hash_entry, ptr %4, i32 1
  store ptr %incdec.ptr, ptr %m_curr3, align 8
  br label %while.cond, !llvm.loop !105

while.end:                                        ; preds = %land.end
  ret void
}

; Function Attrs: mustprogress nounwind uwtable
define linkonce_odr hidden noundef nonnull align 8 dereferenceable(8) ptr @_ZN14obj_hash_entryI9func_declE8get_dataEv(ptr noundef nonnull align 8 dereferenceable(8) %this) #5 comdat align 2 {
entry:
  %this.addr = alloca ptr, align 8
  store ptr %this, ptr %this.addr, align 8
  %this1 = load ptr, ptr %this.addr, align 8
  %m_ptr = getelementptr inbounds %class.obj_hash_entry, ptr %this1, i32 0, i32 0
  ret ptr %m_ptr
}

; Function Attrs: mustprogress uwtable
define linkonce_odr hidden void @_ZN14core_hashtableI14obj_hash_entryI9func_declE12obj_ptr_hashIS1_E6ptr_eqIS1_EE8iteratorC2EPS2_S9_(ptr noundef nonnull align 8 dereferenceable(16) %this, ptr noundef %start, ptr noundef %end) unnamed_addr #4 comdat align 2 {
entry:
  %this.addr = alloca ptr, align 8
  %start.addr = alloca ptr, align 8
  %end.addr = alloca ptr, align 8
  store ptr %this, ptr %this.addr, align 8
  store ptr %start, ptr %start.addr, align 8
  store ptr %end, ptr %end.addr, align 8
  %this1 = load ptr, ptr %this.addr, align 8
  %m_curr = getelementptr inbounds %"class.core_hashtable<obj_hash_entry<func_decl>, obj_ptr_hash<func_decl>, ptr_eq<func_decl>>::iterator", ptr %this1, i32 0, i32 0
  %0 = load ptr, ptr %start.addr, align 8
  store ptr %0, ptr %m_curr, align 8
  %m_end = getelementptr inbounds %"class.core_hashtable<obj_hash_entry<func_decl>, obj_ptr_hash<func_decl>, ptr_eq<func_decl>>::iterator", ptr %this1, i32 0, i32 1
  %1 = load ptr, ptr %end.addr, align 8
  store ptr %1, ptr %m_end, align 8
  call void @_ZN14core_hashtableI14obj_hash_entryI9func_declE12obj_ptr_hashIS1_E6ptr_eqIS1_EE8iterator12move_to_usedEv(ptr noundef nonnull align 8 dereferenceable(16) %this1)
  ret void
}

; Function Attrs: mustprogress uwtable
define linkonce_odr hidden noundef nonnull align 8 dereferenceable(8) ptr @_ZN14core_hashtableI14obj_hash_entryI9func_declE12obj_ptr_hashIS1_E6ptr_eqIS1_EE8iteratordeEv(ptr noundef nonnull align 8 dereferenceable(16) %this) #4 comdat align 2 {
entry:
  %this.addr = alloca ptr, align 8
  store ptr %this, ptr %this.addr, align 8
  %this1 = load ptr, ptr %this.addr, align 8
  %m_curr = getelementptr inbounds %"class.core_hashtable<obj_hash_entry<func_decl>, obj_ptr_hash<func_decl>, ptr_eq<func_decl>>::iterator", ptr %this1, i32 0, i32 0
  %0 = load ptr, ptr %m_curr, align 8
  %call = call noundef nonnull align 8 dereferenceable(8) ptr @_ZN14obj_hash_entryI9func_declE8get_dataEv(ptr noundef nonnull align 8 dereferenceable(8) %0)
  ret ptr %call
}

; Function Attrs: mustprogress uwtable
define linkonce_odr hidden { ptr, ptr } @_ZNK14core_hashtableI14obj_hash_entryI9func_declE12obj_ptr_hashIS1_E6ptr_eqIS1_EE5beginEv(ptr noundef nonnull align 8 dereferenceable(20) %this) #4 comdat align 2 {
entry:
  %retval = alloca %"class.core_hashtable<obj_hash_entry<func_decl>, obj_ptr_hash<func_decl>, ptr_eq<func_decl>>::iterator", align 8
  %this.addr = alloca ptr, align 8
  store ptr %this, ptr %this.addr, align 8
  %this1 = load ptr, ptr %this.addr, align 8
  %m_table = getelementptr inbounds %class.core_hashtable.26, ptr %this1, i32 0, i32 0
  %0 = load ptr, ptr %m_table, align 8
  %m_table2 = getelementptr inbounds %class.core_hashtable.26, ptr %this1, i32 0, i32 0
  %1 = load ptr, ptr %m_table2, align 8
  %m_capacity = getelementptr inbounds %class.core_hashtable.26, ptr %this1, i32 0, i32 1
  %2 = load i32, ptr %m_capacity, align 8
  %idx.ext = zext i32 %2 to i64
  %add.ptr = getelementptr inbounds %class.obj_hash_entry, ptr %1, i64 %idx.ext
  call void @_ZN14core_hashtableI14obj_hash_entryI9func_declE12obj_ptr_hashIS1_E6ptr_eqIS1_EE8iteratorC2EPS2_S9_(ptr noundef nonnull align 8 dereferenceable(16) %retval, ptr noundef %0, ptr noundef %add.ptr)
  %3 = load { ptr, ptr }, ptr %retval, align 8
  ret { ptr, ptr } %3
}

; Function Attrs: mustprogress uwtable
define hidden noundef ptr @_ZNK10func_decls5firstEv(ptr noundef nonnull align 8 dereferenceable(8) %this) #4 align 2 {
entry:
  %retval = alloca ptr, align 8
  %this.addr = alloca ptr, align 8
  %fs = alloca ptr, align 8
  %ref.tmp = alloca %"class.core_hashtable<obj_hash_entry<func_decl>, obj_ptr_hash<func_decl>, ptr_eq<func_decl>>::iterator", align 8
  store ptr %this, ptr %this.addr, align 8
  %this1 = load ptr, ptr %this.addr, align 8
  %m_decls = getelementptr inbounds %class.func_decls, ptr %this1, i32 0, i32 0
  %0 = load ptr, ptr %m_decls, align 8
  %cmp = icmp eq ptr %0, null
  br i1 %cmp, label %if.then, label %if.end

if.then:                                          ; preds = %entry
  store ptr null, ptr %retval, align 8
  br label %return

if.end:                                           ; preds = %entry
  %m_decls2 = getelementptr inbounds %class.func_decls, ptr %this1, i32 0, i32 0
  %1 = load ptr, ptr %m_decls2, align 8
  %2 = ptrtoint ptr %1 to i64
  %and = and i64 %2, 7
  %cmp3 = icmp eq i64 %and, 0
  br i1 %cmp3, label %if.then4, label %if.end7

if.then4:                                         ; preds = %if.end
  %m_decls5 = getelementptr inbounds %class.func_decls, ptr %this1, i32 0, i32 0
  %3 = load ptr, ptr %m_decls5, align 8
  %4 = ptrtoint ptr %3 to i64
  %and6 = and i64 %4, -8
  %5 = inttoptr i64 %and6 to ptr
  store ptr %5, ptr %retval, align 8
  br label %return

if.end7:                                          ; preds = %if.end
  %m_decls8 = getelementptr inbounds %class.func_decls, ptr %this1, i32 0, i32 0
  %6 = load ptr, ptr %m_decls8, align 8
  %7 = ptrtoint ptr %6 to i64
  %and9 = and i64 %7, -8
  %8 = inttoptr i64 %and9 to ptr
  store ptr %8, ptr %fs, align 8
  %9 = load ptr, ptr %fs, align 8
  %call = call { ptr, ptr } @_ZNK14core_hashtableI14obj_hash_entryI9func_declE12obj_ptr_hashIS1_E6ptr_eqIS1_EE5beginEv(ptr noundef nonnull align 8 dereferenceable(20) %9)
  %10 = getelementptr inbounds { ptr, ptr }, ptr %ref.tmp, i32 0, i32 0
  %11 = extractvalue { ptr, ptr } %call, 0
  store ptr %11, ptr %10, align 8
  %12 = getelementptr inbounds { ptr, ptr }, ptr %ref.tmp, i32 0, i32 1
  %13 = extractvalue { ptr, ptr } %call, 1
  store ptr %13, ptr %12, align 8
  %call10 = call noundef nonnull align 8 dereferenceable(8) ptr @_ZN14core_hashtableI14obj_hash_entryI9func_declE12obj_ptr_hashIS1_E6ptr_eqIS1_EE8iteratordeEv(ptr noundef nonnull align 8 dereferenceable(16) %ref.tmp)
  %14 = load ptr, ptr %call10, align 8
  store ptr %14, ptr %retval, align 8
  br label %return

return:                                           ; preds = %if.end7, %if.then4, %if.then
  %15 = load ptr, ptr %retval, align 8
  ret ptr %15
}