; Function Attrs: mustprogress nofree norecurse nosync nounwind willreturn memory(read, inaccessiblemem: none) uwtable
define hidden noundef ptr @_ZNK10func_decls5firstEv(ptr nocapture noundef nonnull readonly align 8 dereferenceable(8) %this) local_unnamed_addr #7 align 2 {
entry:
  %0 = load ptr, ptr %this, align 8
  %cmp = icmp eq ptr %0, null
  br i1 %cmp, label %return, label %if.end

if.end:                                           ; preds = %entry
  %1 = ptrtoint ptr %0 to i64
  %and = and i64 %1, 7
  %cmp3 = icmp eq i64 %and, 0
  br i1 %cmp3, label %return, label %if.end7

if.end7:                                          ; preds = %if.end
  %and9 = and i64 %1, -8
  %2 = inttoptr i64 %and9 to ptr
  %3 = load ptr, ptr %2, align 8
  %m_capacity.i = getelementptr inbounds i8, ptr %2, i64 8
  %4 = load i32, ptr %m_capacity.i, align 8
  %idx.ext.i = zext i32 %4 to i64
  %add.ptr.i = getelementptr inbounds %class.obj_hash_entry, ptr %3, i64 %idx.ext.i
  %cmp.not2.i.i.i = icmp eq i32 %4, 0
  br i1 %cmp.not2.i.i.i, label %_ZNK14core_hashtableI14obj_hash_entryI9func_declE12obj_ptr_hashIS1_E6ptr_eqIS1_EE5beginEv.exit, label %land.rhs.i.i.i

land.rhs.i.i.i:                                   ; preds = %if.end7, %while.body.i.i.i
  %retval.sroa.0.0.i = phi ptr [ %incdec.ptr.i.i.i, %while.body.i.i.i ], [ %3, %if.end7 ]
  %5 = load ptr, ptr %retval.sroa.0.0.i, align 8
  %switch.i.i.i = icmp ult ptr %5, inttoptr (i64 2 to ptr)
  br i1 %switch.i.i.i, label %while.body.i.i.i, label %_ZNK14core_hashtableI14obj_hash_entryI9func_declE12obj_ptr_hashIS1_E6ptr_eqIS1_EE5beginEv.exit

while.body.i.i.i:                                 ; preds = %land.rhs.i.i.i
  %incdec.ptr.i.i.i = getelementptr inbounds i8, ptr %retval.sroa.0.0.i, i64 8
  %cmp.not.i.i.i = icmp eq ptr %incdec.ptr.i.i.i, %add.ptr.i
  br i1 %cmp.not.i.i.i, label %_ZNK14core_hashtableI14obj_hash_entryI9func_declE12obj_ptr_hashIS1_E6ptr_eqIS1_EE5beginEv.exit, label %land.rhs.i.i.i, !llvm.loop !4

_ZNK14core_hashtableI14obj_hash_entryI9func_declE12obj_ptr_hashIS1_E6ptr_eqIS1_EE5beginEv.exit: ; preds = %land.rhs.i.i.i, %while.body.i.i.i, %if.end7
  %retval.sroa.0.1.i = phi ptr [ %3, %if.end7 ], [ %add.ptr.i, %while.body.i.i.i ], [ %retval.sroa.0.0.i, %land.rhs.i.i.i ]
  %6 = load ptr, ptr %retval.sroa.0.1.i, align 8
  br label %return

return:                                           ; preds = %if.end, %entry, %_ZNK14core_hashtableI14obj_hash_entryI9func_declE12obj_ptr_hashIS1_E6ptr_eqIS1_EE5beginEv.exit
  %retval.0 = phi ptr [ %6, %_ZNK14core_hashtableI14obj_hash_entryI9func_declE12obj_ptr_hashIS1_E6ptr_eqIS1_EE5beginEv.exit ], [ null, %entry ], [ %0, %if.end ]
  ret ptr %retval.0
}